; Function Attrs: nounwind uwtable
define dso_local void @disconnectSlaves() local_unnamed_addr #0 {
  %1 = alloca %struct.listIter, align 8
  call void @llvm.lifetime.start.p0(i64 16, ptr nonnull %1) #26
  %2 = load ptr, ptr getelementptr inbounds nuw (i8, ptr @server, i64 1464), align 8, !tbaa !204
  call void @listRewind(ptr noundef %2, ptr noundef nonnull %1) #26
  %3 = call ptr @listNext(ptr noundef nonnull %1) #26
  %.not1 = icmp eq ptr %3, null
  br i1 %.not1, label %._crit_edge, label %.lr.ph

.lr.ph:                                           ; preds = %0, %.lr.ph
  %4 = phi ptr [ %7, %.lr.ph ], [ %3, %0 ]
  %5 = getelementptr inbounds nuw i8, ptr %4, i64 16
  %6 = load ptr, ptr %5, align 8, !tbaa !123
  call void @freeClient(ptr noundef %6)
  %7 = call ptr @listNext(ptr noundef nonnull %1) #26
  %.not = icmp eq ptr %7, null
  br i1 %.not, label %._crit_edge, label %.lr.ph, !llvm.loop !215

._crit_edge:                                      ; preds = %.lr.ph, %0
  call void @llvm.lifetime.end.p0(i64 16, ptr nonnull %1) #26
  ret void
}